target datalayout = "e-m:e-p270:32:32-p271:32:32-p272:64:64-i64:64-i128:128-f80:128-n8:16:32:64-S128"
target triple = "x86_64-pc-linux-gnu"

%struct.CVodeMemRec = type { double, ptr, ptr, i32, i32, i32, double, double, ptr, i32, ptr, ptr, i32, ptr, i32, i32, double, double, ptr, i32, i32, i32, ptr, ptr, ptr, i32, i32, ptr, ptr, ptr, i32, double, i32, i32, double, ptr, ptr, i32, ptr, ptr, i32, i32, i32, double, ptr, ptr, [13 x ptr], ptr, ptr, ptr, ptr, ptr, [13 x ptr], ptr, ptr, ptr, ptr, [13 x ptr], ptr, ptr, ptr, ptr, ptr, i32, [13 x ptr], ptr, ptr, ptr, ptr, ptr, i32, double, i32, i32, i32, i32, i32, double, double, double, double, double, double, double, double, [14 x double], [6 x double], [13 x double], double, double, double, double, double, double, double, double, double, double, double, i32, ptr, i32, i64, i32, i32, i32, i32, i32, double, double, double, i64, i64, i64, i64, i64, i64, i64, i64, i64, ptr, i64, i64, ptr, i64, i64, i64, i64, i64, i64, i32, i64, i64, i64, i64, i64, i64, double, double, double, ptr, ptr, ptr, ptr, ptr, i32, i32, i64, double, double, double, i32, double, i32, i32, i32, i32, i32, i32, i32, i32, i32, i32, i32, i32, i32, i32, i32, i32, ptr, ptr, ptr, i32, [6 x [4 x double]], i32, i64, ptr, i32, ptr, ptr, double, double, double, ptr, ptr, ptr, double, double, i32, i32, i64, ptr, i32, i32, ptr, i32 }
%struct.CVadjMemRec = type { double, double, i32, i32, double, ptr, i32, ptr, i32, ptr, i32, ptr, i64, ptr, i64, i32, ptr, ptr, ptr, ptr, i32, i32, i32, i32, [13 x ptr], [13 x ptr], [13 x double], ptr, ptr, i64 }
%struct.CVodeBMemRec = type { i32, double, ptr, i32, i32, ptr, ptr, ptr, ptr, ptr, ptr, ptr, ptr, ptr, double, ptr, ptr }
%struct.CVBBDPrecDataRecB = type { ptr, ptr }

@.str = private unnamed_addr constant [9 x i8] c"CVBBDPRE\00", align 1
@.str.16 = private unnamed_addr constant [14 x i8] c"cvGlocWrapper\00", align 1
@.str.17 = private unnamed_addr constant [25 x i8] c"Bad t for interpolation.\00", align 1

; Function Attrs: nounwind uwtable
define internal i32 @cvGlocWrapper(i64 noundef %0, double noundef %1, ptr noundef %2, ptr noundef %3, ptr noundef %4) #0 {
  %6 = alloca i32, align 4
  %7 = alloca i64, align 8
  %8 = alloca double, align 8
  %9 = alloca ptr, align 8
  %10 = alloca ptr, align 8
  %11 = alloca ptr, align 8
  %12 = alloca ptr, align 8
  %13 = alloca ptr, align 8
  %14 = alloca ptr, align 8
  %15 = alloca ptr, align 8
  %16 = alloca i32, align 4
  %17 = alloca i32, align 4
  %18 = alloca i32, align 4
  store i64 %0, ptr %7, align 8, !tbaa !7
  store double %1, ptr %8, align 8, !tbaa !9
  store ptr %2, ptr %9, align 8, !tbaa !55
  store ptr %3, ptr %10, align 8, !tbaa !55
  store ptr %4, ptr %11, align 8, !tbaa !3
  call void @llvm.lifetime.start.p0(i64 8, ptr %12) #5
  call void @llvm.lifetime.start.p0(i64 8, ptr %13) #5
  call void @llvm.lifetime.start.p0(i64 8, ptr %14) #5
  call void @llvm.lifetime.start.p0(i64 8, ptr %15) #5
  call void @llvm.lifetime.start.p0(i64 4, ptr %16) #5
  call void @llvm.lifetime.start.p0(i64 4, ptr %17) #5
  %19 = load ptr, ptr %11, align 8, !tbaa !3
  store ptr %19, ptr %12, align 8, !tbaa !11
  %20 = load ptr, ptr %12, align 8, !tbaa !11
  %21 = getelementptr inbounds nuw %struct.CVodeMemRec, ptr %20, i32 0, i32 194
  %22 = load ptr, ptr %21, align 8, !tbaa !60
  store ptr %22, ptr %13, align 8, !tbaa !61
  %23 = load ptr, ptr %13, align 8, !tbaa !61
  %24 = getelementptr inbounds nuw %struct.CVadjMemRec, ptr %23, i32 0, i32 7
  %25 = load ptr, ptr %24, align 8, !tbaa !82
  store ptr %25, ptr %14, align 8, !tbaa !68
  %26 = load ptr, ptr %14, align 8, !tbaa !68
  %27 = getelementptr inbounds nuw %struct.CVodeBMemRec, ptr %26, i32 0, i32 12
  %28 = load ptr, ptr %27, align 8, !tbaa !80
  store ptr %28, ptr %15, align 8, !tbaa !75
  %29 = load ptr, ptr %13, align 8, !tbaa !61
  %30 = getelementptr inbounds nuw %struct.CVadjMemRec, ptr %29, i32 0, i32 19
  %31 = load ptr, ptr %30, align 8, !tbaa !83
  %32 = load ptr, ptr %12, align 8, !tbaa !11
  %33 = load double, ptr %8, align 8, !tbaa !9
  %34 = load ptr, ptr %13, align 8, !tbaa !61
  %35 = getelementptr inbounds nuw %struct.CVadjMemRec, ptr %34, i32 0, i32 27
  %36 = load ptr, ptr %35, align 8, !tbaa !84
  %37 = call i32 %31(ptr noundef %32, double noundef %33, ptr noundef %36, ptr noundef null)
  store i32 %37, ptr %17, align 4, !tbaa !54
  %38 = load i32, ptr %17, align 4, !tbaa !54
  %39 = icmp ne i32 %38, 0
  br i1 %39, label %40, label %42

40:                                               ; preds = %5
  %41 = load ptr, ptr %12, align 8, !tbaa !11
  call void (ptr, i32, ptr, ptr, ptr, ...) @cvProcessError(ptr noundef %41, i32 noundef -1, ptr noundef @.str, ptr noundef @.str.16, ptr noundef @.str.17)
  store i32 -1, ptr %6, align 4
  store i32 1, ptr %18, align 4
  br label %58

42:                                               ; preds = %5
  %43 = load ptr, ptr %15, align 8, !tbaa !75
  %44 = getelementptr inbounds nuw %struct.CVBBDPrecDataRecB, ptr %43, i32 0, i32 0
  %45 = load ptr, ptr %44, align 8, !tbaa !77
  %46 = load i64, ptr %7, align 8, !tbaa !7
  %47 = load double, ptr %8, align 8, !tbaa !9
  %48 = load ptr, ptr %13, align 8, !tbaa !61
  %49 = getelementptr inbounds nuw %struct.CVadjMemRec, ptr %48, i32 0, i32 27
  %50 = load ptr, ptr %49, align 8, !tbaa !84
  %51 = load ptr, ptr %9, align 8, !tbaa !55
  %52 = load ptr, ptr %10, align 8, !tbaa !55
  %53 = load ptr, ptr %14, align 8, !tbaa !68
  %54 = getelementptr inbounds nuw %struct.CVodeBMemRec, ptr %53, i32 0, i32 9
  %55 = load ptr, ptr %54, align 8, !tbaa !85
  %56 = call i32 %45(i64 noundef %46, double noundef %47, ptr noundef %50, ptr noundef %51, ptr noundef %52, ptr noundef %55)
  store i32 %56, ptr %16, align 4, !tbaa !54
  %57 = load i32, ptr %16, align 4, !tbaa !54
  store i32 %57, ptr %6, align 4
  store i32 1, ptr %18, align 4
  br label %58

58:                                               ; preds = %42, %40
  call void @llvm.lifetime.end.p0(i64 4, ptr %17) #5
  call void @llvm.lifetime.end.p0(i64 4, ptr %16) #5
  call void @llvm.lifetime.end.p0(i64 8, ptr %15) #5
  call void @llvm.lifetime.end.p0(i64 8, ptr %14) #5
  call void @llvm.lifetime.end.p0(i64 8, ptr %13) #5
  call void @llvm.lifetime.end.p0(i64 8, ptr %12) #5
  %59 = load i32, ptr %6, align 4
  ret i32 %59
}